target datalayout = "e-m:e-p270:32:32-p271:32:32-p272:64:64-i64:64-i128:128-f80:128-n8:16:32:64-S128"
target triple = "x86_64-pc-linux-gnu"

; Function Attrs: nounwind uwtable
define internal i32 @velocity(double noundef %0, ptr noundef %1, ptr noundef %2, ptr noundef %3) #0 {
  %5 = alloca double, align 8
  %6 = alloca ptr, align 8
  %7 = alloca ptr, align 8
  %8 = alloca ptr, align 8
  %9 = alloca ptr, align 8
  %10 = alloca ptr, align 8
  %11 = alloca double, align 8
  %12 = alloca double, align 8
  store double %0, ptr %5, align 8, !tbaa !27
  store ptr %1, ptr %6, align 8, !tbaa !26
  store ptr %2, ptr %7, align 8, !tbaa !26
  store ptr %3, ptr %8, align 8, !tbaa !33
  call void @llvm.lifetime.start.p0(i64 8, ptr %9) #8
  %13 = load ptr, ptr %6, align 8, !tbaa !26
  %14 = call ptr @N_VGetArrayPointer(ptr noundef %13)
  store ptr %14, ptr %9, align 8, !tbaa !45
  call void @llvm.lifetime.start.p0(i64 8, ptr %10) #8
  %15 = load ptr, ptr %7, align 8, !tbaa !26
  %16 = call ptr @N_VGetArrayPointer(ptr noundef %15)
  store ptr %16, ptr %10, align 8, !tbaa !45
  call void @llvm.lifetime.start.p0(i64 8, ptr %11) #8
  %17 = load ptr, ptr %9, align 8, !tbaa !45
  %18 = getelementptr inbounds double, ptr %17, i64 2
  %19 = load double, ptr %18, align 8, !tbaa !27
  store double %19, ptr %11, align 8, !tbaa !27
  call void @llvm.lifetime.start.p0(i64 8, ptr %12) #8
  %20 = load ptr, ptr %9, align 8, !tbaa !45
  %21 = getelementptr inbounds double, ptr %20, i64 3
  %22 = load double, ptr %21, align 8, !tbaa !27
  store double %22, ptr %12, align 8, !tbaa !27
  %23 = load double, ptr %11, align 8, !tbaa !27
  %24 = load ptr, ptr %10, align 8, !tbaa !45
  %25 = getelementptr inbounds double, ptr %24, i64 0
  store double %23, ptr %25, align 8, !tbaa !27
  %26 = load double, ptr %12, align 8, !tbaa !27
  %27 = load ptr, ptr %10, align 8, !tbaa !45
  %28 = getelementptr inbounds double, ptr %27, i64 1
  store double %26, ptr %28, align 8, !tbaa !27
  call void @llvm.lifetime.end.p0(i64 8, ptr %12) #8
  call void @llvm.lifetime.end.p0(i64 8, ptr %11) #8
  call void @llvm.lifetime.end.p0(i64 8, ptr %10) #8
  call void @llvm.lifetime.end.p0(i64 8, ptr %9) #8
  ret i32 0
}