; Function Attrs: nounwind uwtable
define internal noundef i32 @velocity(double %0, ptr noundef %1, ptr noundef %2, ptr readnone captures(none) %3) #0 {
  %5 = tail call ptr @N_VGetArrayPointer(ptr noundef %1) #14
  %6 = tail call ptr @N_VGetArrayPointer(ptr noundef %2) #14
  %7 = getelementptr inbounds nuw i8, ptr %5, i64 16
  %8 = load double, ptr %7, align 8, !tbaa !32
  %9 = getelementptr inbounds nuw i8, ptr %5, i64 24
  %10 = load double, ptr %9, align 8, !tbaa !32
  store double %8, ptr %6, align 8, !tbaa !32
  %11 = getelementptr inbounds nuw i8, ptr %6, i64 8
  store double %10, ptr %11, align 8, !tbaa !32
  ret i32 0
}